target datalayout = "e-m:e-p270:32:32-p271:32:32-p272:64:64-i64:64-i128:128-f80:128-n8:16:32:64-S128"
target triple = "x86_64-pc-linux-gnu"

; Function Attrs: nounwind ssp uwtable
define dso_local i64 @crypto_aead_aes256gcm_keybytes() #0 {
  ret i64 32
}

; Function Attrs: nounwind ssp uwtable
define dso_local i64 @crypto_aead_aes256gcm_nsecbytes() #0 {
  ret i64 0
}

; Function Attrs: nounwind ssp uwtable
define dso_local i64 @crypto_aead_aes256gcm_npubbytes() #0 {
  ret i64 12
}

; Function Attrs: nounwind ssp uwtable
define dso_local i64 @crypto_aead_aes256gcm_abytes() #0 {
  ret i64 16
}

; Function Attrs: nounwind ssp uwtable
define dso_local i64 @crypto_aead_aes256gcm_statebytes() #0 {
  ret i64 512
}

; Function Attrs: nounwind ssp uwtable
define dso_local i64 @crypto_aead_aes256gcm_messagebytes_max() #0 {
  ret i64 68719476704
}

; Function Attrs: nounwind ssp uwtable
define dso_local void @crypto_aead_aes256gcm_keygen(ptr noundef nonnull %0) #0 {
  %2 = alloca ptr, align 8
  store ptr %0, ptr %2, align 8
  %3 = load ptr, ptr %2, align 8
  call void @randombytes_buf(ptr noundef %3, i64 noundef 32)
  ret void
}

declare void @randombytes_buf(ptr noundef, i64 noundef) #1


!llvm.module.flags = !{!0, !1, !2, !3}

!0 = !{i32 1, !"wchar_size", i32 4}
!1 = !{i32 8, !"PIC Level", i32 2}
!2 = !{i32 7, !"PIE Level", i32 2}
!3 = !{i32 7, !"uwtable", i32 2}
