; ModuleID = 'bench/libsodium/original/aead_aes256gcm.ll'
source_filename = "bench/libsodium/original/aead_aes256gcm.ll"
target datalayout = "e-m:e-p270:32:32-p271:32:32-p272:64:64-i64:64-i128:128-f80:128-n8:16:32:64-S128"
target triple = "x86_64-pc-linux-gnu"

; Function Attrs: mustprogress nofree norecurse nosync nounwind ssp willreturn memory(none) uwtable
define dso_local noundef i64 @crypto_aead_aes256gcm_keybytes() local_unnamed_addr #0 {
  ret i64 32
}

; Function Attrs: mustprogress nofree norecurse nosync nounwind ssp willreturn memory(none) uwtable
define dso_local noundef i64 @crypto_aead_aes256gcm_nsecbytes() local_unnamed_addr #0 {
  ret i64 0
}

; Function Attrs: mustprogress nofree norecurse nosync nounwind ssp willreturn memory(none) uwtable
define dso_local noundef i64 @crypto_aead_aes256gcm_npubbytes() local_unnamed_addr #0 {
  ret i64 12
}

; Function Attrs: mustprogress nofree norecurse nosync nounwind ssp willreturn memory(none) uwtable
define dso_local noundef i64 @crypto_aead_aes256gcm_abytes() local_unnamed_addr #0 {
  ret i64 16
}

; Function Attrs: mustprogress nofree norecurse nosync nounwind ssp willreturn memory(none) uwtable
define dso_local noundef i64 @crypto_aead_aes256gcm_statebytes() local_unnamed_addr #0 {
  ret i64 512
}

; Function Attrs: mustprogress nofree norecurse nosync nounwind ssp willreturn memory(none) uwtable
define dso_local noundef i64 @crypto_aead_aes256gcm_messagebytes_max() local_unnamed_addr #0 {
  ret i64 68719476704
}

; Function Attrs: nounwind ssp uwtable
define dso_local void @crypto_aead_aes256gcm_keygen(ptr noundef nonnull %0) local_unnamed_addr #1 {
  tail call void @randombytes_buf(ptr noundef nonnull %0, i64 noundef 32) #3
  ret void
}

declare void @randombytes_buf(ptr noundef, i64 noundef) local_unnamed_addr #2


!llvm.module.flags = !{!0, !1, !2, !3}

!0 = !{i32 1, !"wchar_size", i32 4}
!1 = !{i32 8, !"PIC Level", i32 2}
!2 = !{i32 7, !"PIE Level", i32 2}
!3 = !{i32 7, !"uwtable", i32 2}
